
_UART0_ISR:
	PUSH PSW+0
	PUSH 224
	PUSH B+0
	PUSH 130
	PUSH 131
;uart.c,52 :: 		ics ICS_AUTO
;uart.c,54 :: 		rx_buffer[cnt++] = UART_Read();
	MOV A, #_rx_buffer+0
	ADD A, _cnt+0
	MOV R0, A
	MOV FLOC__UART0_ISR+1, 0
	LCALL _UART_Read+0
	MOV FLOC__UART0_ISR+0, 0
	MOV R0, FLOC__UART0_ISR+1
	MOV @R0, FLOC__UART0_ISR+0
	INC _cnt+0
;uart.c,55 :: 		RI0_bit = 0;
	CLR RI0_bit+0
;uart.c,56 :: 		}
	POP 131
	POP 130
	POP B+0
	POP 224
	POP PSW+0
	RETI
; end of _UART0_ISR

_Timer_ISR:
	PUSH PSW+0
	PUSH 224
	PUSH B+0
	PUSH 130
	PUSH 131
;uart.c,62 :: 		ics ICS_AUTO
;uart.c,64 :: 		switch(i)
	SJMP L_Timer_ISR0
;uart.c,66 :: 		case 0:
L_Timer_ISR2:
;uart.c,68 :: 		value = (d / 1000);
	MOV R4, #232
	MOV R5, #3
	MOV R0, _d+0
	MOV R1, _d+1
	LCALL _Div_16x16_U+0
	MOV _value+0, 0
;uart.c,69 :: 		break;
	LJMP L_Timer_ISR1
;uart.c,71 :: 		case 1:
L_Timer_ISR3:
;uart.c,73 :: 		value = ((d % 1000) / 100);
	MOV R4, #232
	MOV R5, #3
	MOV R0, _d+0
	MOV R1, _d+1
	LCALL _Div_16x16_U+0
	MOV R0, 4
	MOV R1, 5
	MOV R4, #100
	MOV R5, #0
	LCALL _Div_16x16_U+0
	MOV _value+0, 0
;uart.c,74 :: 		break;
	SJMP L_Timer_ISR1
;uart.c,76 :: 		case 2:
L_Timer_ISR4:
;uart.c,78 :: 		value = ((d % 100) / 10);
	MOV R4, #100
	MOV R5, #0
	MOV R0, _d+0
	MOV R1, _d+1
	LCALL _Div_16x16_U+0
	MOV R0, 4
	MOV R1, 5
	MOV R4, #10
	MOV R5, #0
	LCALL _Div_16x16_U+0
	MOV _value+0, 0
;uart.c,79 :: 		break;
	SJMP L_Timer_ISR1
;uart.c,81 :: 		case 3:
L_Timer_ISR5:
;uart.c,83 :: 		value = (d % 10);
	MOV R4, #10
	MOV R5, #0
	MOV R0, _d+0
	MOV R1, _d+1
	LCALL _Div_16x16_U+0
	MOV R0, 4
	MOV R1, 5
	MOV _value+0, 0
;uart.c,84 :: 		break;
	SJMP L_Timer_ISR1
;uart.c,86 :: 		}
L_Timer_ISR0:
	MOV A, _i+0
	JZ L_Timer_ISR2
	MOV A, _i+0
	XRL A, #1
	JZ L_Timer_ISR3
	MOV A, _i+0
	XRL A, #2
	JZ L_Timer_ISR4
	MOV A, _i+0
	XRL A, #3
	JZ L_Timer_ISR5
L_Timer_ISR1:
;uart.c,88 :: 		if(d >= 40000)
	CLR C
	MOV A, _d+0
	SUBB A, #64
	MOV A, _d+1
	SUBB A, #156
	JC L_Timer_ISR6
;uart.c,90 :: 		segment_write(11, i);
	MOV FARG_segment_write_disp+0, #11
	MOV FARG_segment_write_pos+0, _i+0
	LCALL _segment_write+0
;uart.c,91 :: 		}
	SJMP L_Timer_ISR7
L_Timer_ISR6:
;uart.c,94 :: 		segment_write(value, i);
	MOV FARG_segment_write_disp+0, _value+0
	MOV FARG_segment_write_pos+0, _i+0
	LCALL _segment_write+0
;uart.c,95 :: 		}
L_Timer_ISR7:
;uart.c,97 :: 		i++;
	INC _i+0
;uart.c,99 :: 		if(i > 3)
	SETB C
	MOV A, _i+0
	SUBB A, #3
	JC L_Timer_ISR8
;uart.c,101 :: 		i = 0;
	MOV _i+0, #0
;uart.c,102 :: 		}
L_Timer_ISR8:
;uart.c,104 :: 		TMR3CN &= 0x7F;
	ANL TMR3CN+0, #127
;uart.c,105 :: 		}
	POP 131
	POP 130
	POP B+0
	POP 224
	POP PSW+0
	RETI
; end of _Timer_ISR

_main:
	MOV SP+0, #128
;uart.c,108 :: 		void main(void)
;uart.c,110 :: 		unsigned char i = 0x00;
	MOV 130, #?ICSmain_i_L0+0
	MOV 131, hi(#?ICSmain_i_L0+0)
	MOV R0, #main_i_L0+0
	MOV R1, #8
	LCALL ___CC2D+0
;uart.c,111 :: 		unsigned char j = 0x00;
;uart.c,112 :: 		unsigned char k = 0x00;
;uart.c,113 :: 		unsigned char l = 0x00;
;uart.c,114 :: 		unsigned int multiplier = 1;
;uart.c,115 :: 		unsigned int range = 0x0000;
;uart.c,117 :: 		Init_Device();
	LCALL _Init_Device+0
;uart.c,118 :: 		UART1_Init(9600);
	ANL CKCON+0, #252
	ANL CKCON+0, #247
	ORL CKCON+0, #1
	MOV TH1+0, #96
	LCALL _UART1_Init+0
;uart.c,120 :: 		while(1)
L_main9:
;uart.c,122 :: 		if(cnt >= 18)
	CLR C
	MOV A, _cnt+0
	SUBB A, #18
	JNC #3
	LJMP L_main11
;uart.c,124 :: 		for(i = 0; i < 18; i++)
	MOV main_i_L0+0, #0
L_main12:
	CLR C
	MOV A, main_i_L0+0
	SUBB A, #18
	JNC L_main13
;uart.c,126 :: 		if(rx_buffer[i] == 'D')
	MOV A, #_rx_buffer+0
	ADD A, main_i_L0+0
	MOV R0, A
	MOV 1, @R0
	MOV A, R1
	XRL A, #68
	JNZ L_main15
;uart.c,128 :: 		j = i;
	MOV main_j_L0+0, main_i_L0+0
;uart.c,129 :: 		j += 2;
	MOV A, main_i_L0+0
	ADD A, #2
	MOV main_j_L0+0, A
;uart.c,130 :: 		break;
	SJMP L_main13
;uart.c,131 :: 		}
L_main15:
;uart.c,124 :: 		for(i = 0; i < 18; i++)
	INC main_i_L0+0
;uart.c,132 :: 		}
	SJMP L_main12
L_main13:
;uart.c,134 :: 		for(i = j; i < 18; i++)
	MOV main_i_L0+0, main_j_L0+0
L_main16:
	CLR C
	MOV A, main_i_L0+0
	SUBB A, #18
	JNC L_main17
;uart.c,136 :: 		if(rx_buffer[i] == ' ')
	MOV A, #_rx_buffer+0
	ADD A, main_i_L0+0
	MOV R0, A
	MOV 1, @R0
	MOV A, R1
	XRL A, #32
	JNZ L_main19
;uart.c,138 :: 		k = i;
	MOV main_k_L0+0, main_i_L0+0
;uart.c,139 :: 		break;
	SJMP L_main17
;uart.c,140 :: 		}
L_main19:
;uart.c,134 :: 		for(i = j; i < 18; i++)
	INC main_i_L0+0
;uart.c,141 :: 		}
	SJMP L_main16
L_main17:
;uart.c,143 :: 		range = 0;
	MOV main_range_L0+0, #0
	MOV main_range_L0+1, #0
;uart.c,144 :: 		multiplier = 1;
	MOV main_multiplier_L0+0, #1
	MOV main_multiplier_L0+1, #0
;uart.c,145 :: 		l = ((k - j) - 1);
	CLR C
	MOV A, main_k_L0+0
	SUBB A, main_j_L0+0
	MOV main_l_L0+0, A
	MOV R0, #1
	CLR C
	MOV A, main_l_L0+0
	SUBB A, R0
	MOV main_l_L0+0, A
;uart.c,146 :: 		for(i = 0; i < l; i++)
	MOV main_i_L0+0, #0
L_main20:
	CLR C
	MOV A, main_i_L0+0
	SUBB A, main_l_L0+0
	JNC L_main21
;uart.c,148 :: 		multiplier *= 10;
	MOV R0, main_multiplier_L0+0
	MOV R1, main_multiplier_L0+1
	MOV R4, #10
	MOV R5, #0
	LCALL _Mul_16x16+0
	MOV main_multiplier_L0+0, 0
	MOV main_multiplier_L0+1, 1
;uart.c,146 :: 		for(i = 0; i < l; i++)
	INC main_i_L0+0
;uart.c,149 :: 		}
	SJMP L_main20
L_main21:
;uart.c,151 :: 		for(i = j; i < k; i++)
	MOV main_i_L0+0, main_j_L0+0
L_main23:
	CLR C
	MOV A, main_i_L0+0
	SUBB A, main_k_L0+0
	JNC L_main24
;uart.c,153 :: 		range += ((rx_buffer[i] - 0x30) * multiplier);
	MOV A, #_rx_buffer+0
	ADD A, main_i_L0+0
	MOV R0, A
	CLR C
	MOV A, @R0
	SUBB A, #48
	MOV R0, A
	CLR A
	SUBB A, #0
	MOV R1, A
	MOV R4, main_multiplier_L0+0
	MOV R5, main_multiplier_L0+1
	LCALL _Mul_16x16+0
	MOV A, main_range_L0+0
	ADD A, R0
	MOV main_range_L0+0, A
	MOV A, main_range_L0+1
	ADDC A, R1
	MOV main_range_L0+1, A
;uart.c,154 :: 		multiplier /= 10;
	MOV R4, #10
	MOV R5, #0
	MOV R0, main_multiplier_L0+0
	MOV R1, main_multiplier_L0+1
	LCALL _Div_16x16_U+0
	MOV main_multiplier_L0+0, 0
	MOV main_multiplier_L0+1, 1
;uart.c,151 :: 		for(i = j; i < k; i++)
	INC main_i_L0+0
;uart.c,155 :: 		}
	SJMP L_main23
L_main24:
;uart.c,157 :: 		d = range;
	MOV _d+0, main_range_L0+0
	MOV _d+1, main_range_L0+1
;uart.c,158 :: 		cnt = 0x00;
	MOV _cnt+0, #0
;uart.c,159 :: 		}
L_main11:
;uart.c,161 :: 		delay_ms(40);
	MOV R5, 3
	MOV R6, 125
	MOV R7, 89
	DJNZ R7, 
	DJNZ R6, 
	DJNZ R5, 
;uart.c,162 :: 		};
	LJMP L_main9
;uart.c,163 :: 		}
	SJMP #254
; end of _main

_PCA_Init:
;uart.c,166 :: 		void PCA_Init(void)
;uart.c,168 :: 		PCA0MD &= ~0x40;
	ANL PCA0MD+0, #191
;uart.c,169 :: 		PCA0MD = 0x00;
	MOV PCA0MD+0, #0
;uart.c,170 :: 		}
	RET
; end of _PCA_Init

_Timer_Init:
;uart.c,173 :: 		void Timer_Init(void)
;uart.c,175 :: 		TMR3CN = 0x04;
	MOV TMR3CN+0, #4
;uart.c,176 :: 		TMR3RLL = 0x02;
	MOV TMR3RLL+0, #2
;uart.c,177 :: 		TMR3RLH = 0xFC;
	MOV TMR3RLH+0, #252
;uart.c,178 :: 		}
	RET
; end of _Timer_Init

_Port_IO_Init:
;uart.c,181 :: 		void Port_IO_Init(void)
;uart.c,201 :: 		P0MDOUT = 0x30;
	MOV P0MDOUT+0, #48
;uart.c,202 :: 		P1MDOUT = 0xE0;
	MOV P1MDOUT+0, #224
;uart.c,203 :: 		P1SKIP = 0xE0;
	MOV P1SKIP+0, #224
;uart.c,204 :: 		XBR0 = 0x01;
	MOV XBR0+0, #1
;uart.c,205 :: 		XBR1 = 0x40;
	MOV XBR1+0, #64
;uart.c,206 :: 		}
	RET
; end of _Port_IO_Init

_Oscillator_Init:
;uart.c,209 :: 		void Oscillator_Init(void)
;uart.c,211 :: 		OSCICN = 0x82;
	MOV OSCICN+0, #130
;uart.c,212 :: 		}
	RET
; end of _Oscillator_Init

_Interrupts_Init:
;uart.c,215 :: 		void Interrupts_Init(void)
;uart.c,217 :: 		IE = 0x90;
	MOV IE+0, #144
;uart.c,218 :: 		EIE1 = 0x80;
	MOV EIE1+0, #128
;uart.c,219 :: 		}
	RET
; end of _Interrupts_Init

_Init_Device:
;uart.c,222 :: 		void Init_Device(void)
;uart.c,224 :: 		PCA_Init();
	LCALL _PCA_Init+0
;uart.c,225 :: 		Timer_Init();
	LCALL _Timer_Init+0
;uart.c,226 :: 		Port_IO_Init();
	LCALL _Port_IO_Init+0
;uart.c,227 :: 		Oscillator_Init();
	LCALL _Oscillator_Init+0
;uart.c,228 :: 		Interrupts_Init();
	LCALL _Interrupts_Init+0
;uart.c,229 :: 		}
	RET
; end of _Init_Device

_write_74HC595:
;uart.c,232 :: 		void write_74HC595(unsigned char send_data)
;uart.c,234 :: 		signed char clks = 0x08;
	MOV write_74HC595_clks_L0+0, #8
;uart.c,236 :: 		while(clks > 0)
L_write_74HC59526:
	SETB C
	MOV A, #0
	XRL A, #128
	MOV R0, A
	MOV A, write_74HC595_clks_L0+0
	XRL A, #128
	SUBB A, R0
	JC L_write_74HC59527
;uart.c,238 :: 		if((send_data & 0x80) == 0x00)
	MOV A, FARG_write_74HC595_send_data+0
	ANL A, #128
	MOV R1, A
	JNZ L_write_74HC59528
;uart.c,240 :: 		LED_DOUT = 0;
	CLR P1_6_bit+0
;uart.c,241 :: 		}
	SJMP L_write_74HC59529
L_write_74HC59528:
;uart.c,244 :: 		LED_DOUT = 1;
	SETB P1_6_bit+0
;uart.c,245 :: 		}
L_write_74HC59529:
;uart.c,247 :: 		LED_CLK = 0;
	CLR P1_5_bit+0
;uart.c,248 :: 		send_data <<= 1;
	MOV R0, #1
	MOV A, FARG_write_74HC595_send_data+0
	INC R0
	SJMP L__write_74HC59530
L__write_74HC59531:
	CLR C
	RLC A
L__write_74HC59530:
	DJNZ R0, L__write_74HC59531
	MOV FARG_write_74HC595_send_data+0, A
;uart.c,249 :: 		clks--;
	DEC write_74HC595_clks_L0+0
;uart.c,250 :: 		LED_CLK = 1;
	SETB P1_5_bit+0
;uart.c,251 :: 		}
	SJMP L_write_74HC59526
L_write_74HC59527:
;uart.c,252 :: 		}
	RET
; end of _write_74HC595

_segment_write:
;uart.c,255 :: 		void segment_write(unsigned char disp, unsigned char pos)
;uart.c,257 :: 		LED_LATCH = 0;
	CLR P1_7_bit+0
;uart.c,258 :: 		write_74HC595(segment_code[disp]);
	MOV A, FARG_segment_write_disp+0
	ADD A, #_segment_code+0
	MOV R1, A
	CLR A
	ADDC A, hi(#_segment_code+0)
	MOV R2, A
	MOV 130, 1
	MOV 131, 2
	CLR A
	MOVC A, @A+DPTR
	MOV R0, A
	MOV FARG_write_74HC595_send_data+0, 0
	LCALL _write_74HC595+0
;uart.c,259 :: 		write_74HC595(display_pos[pos]);
	MOV A, FARG_segment_write_pos+0
	ADD A, #_display_pos+0
	MOV R1, A
	CLR A
	ADDC A, hi(#_display_pos+0)
	MOV R2, A
	MOV 130, 1
	MOV 131, 2
	CLR A
	MOVC A, @A+DPTR
	MOV R0, A
	MOV FARG_write_74HC595_send_data+0, 0
	LCALL _write_74HC595+0
;uart.c,260 :: 		LED_LATCH = 1;
	SETB P1_7_bit+0
;uart.c,262 :: 		}
	RET
; end of _segment_write
